; Function Attrs: nounwind uwtable
define dso_local void @sentinelForceHelloUpdateDictOfRedisInstances(ptr noundef %0) local_unnamed_addr #0 {
  %2 = tail call ptr @dictGetSafeIterator(ptr noundef %0) #30
  %3 = tail call ptr @dictNext(ptr noundef %2) #30
  %.not9 = icmp eq ptr %3, null
  br i1 %.not9, label %._crit_edge, label %.lr.ph

.lr.ph:                                           ; preds = %1, %11
  %4 = phi ptr [ %12, %11 ], [ %3, %1 ]
  %5 = tail call ptr @dictGetVal(ptr noundef nonnull %4) #30
  %6 = getelementptr inbounds nuw i8, ptr %5, i64 48
  %7 = load i64, ptr %6, align 8, !tbaa !151
  %8 = load i64, ptr @sentinel_publish_period, align 8, !tbaa !107
  %.not8.not = icmp sgt i64 %7, %8
  br i1 %.not8.not, label %9, label %11

9:                                                ; preds = %.lr.ph
  %.neg = xor i64 %8, -1
  %10 = add i64 %7, %.neg
  store i64 %10, ptr %6, align 8, !tbaa !151
  br label %11

11:                                               ; preds = %9, %.lr.ph
  %12 = tail call ptr @dictNext(ptr noundef %2) #30
  %.not = icmp eq ptr %12, null
  br i1 %.not, label %._crit_edge, label %.lr.ph, !llvm.loop !244

._crit_edge:                                      ; preds = %11, %1
  tail call void @dictReleaseIterator(ptr noundef %2) #30
  ret void
}